; Function Attrs: inlinehint mustprogress uwtable
define internal fastcc void @"_ZZN9grpc_core12_GLOBAL__N_110RbacConfig10RbacPolicy5Rules6Policy11HeaderMatch12JsonPostLoadERKNS_12experimental4JsonERKNS_8JsonArgsEPNS_16ValidationErrorsEENK3$_0clEN4absl12lts_202407228StatusOrINS_13HeaderMatcherEEE"(ptr %.0.val, ptr readonly captures(none) %.8.val, ptr noundef nonnull %0) unnamed_addr #7 align 2 personality ptr @__gxx_personality_v0 {
  %2 = load i64, ptr %0, align 8, !tbaa !265
  %3 = icmp eq i64 %2, 1
  br i1 %3, label %_ZNR4absl12lts_202407228StatusOrIN9grpc_core13HeaderMatcherEEdeEv.exit, label %6

_ZNR4absl12lts_202407228StatusOrIN9grpc_core13HeaderMatcherEEdeEv.exit: ; preds = %1
  %4 = getelementptr inbounds nuw i8, ptr %0, i64 8
  %5 = tail call noundef nonnull align 8 dereferenceable(114) ptr @_ZN9grpc_core13HeaderMatcheraSERKS0_(ptr noundef nonnull align 8 dereferenceable(114) %.0.val, ptr noundef nonnull align 8 dereferenceable(114) %4)
  br label %17

6:                                                ; preds = %1
  %7 = load ptr, ptr %.8.val, align 8, !tbaa !243
  %8 = and i64 %2, 1
  %.not.i = icmp eq i64 %8, 0
  br i1 %.not.i, label %9, label %15

9:                                                ; preds = %6
  %10 = inttoptr i64 %2 to ptr
  %11 = getelementptr inbounds nuw i8, ptr %10, i64 8
  %12 = load ptr, ptr %11, align 8, !tbaa !50
  %13 = getelementptr inbounds nuw i8, ptr %10, i64 16
  %14 = load i64, ptr %13, align 8, !tbaa !38
  br label %_ZNK4absl12lts_202407226Status7messageEv.exit

15:                                               ; preds = %6
  %16 = and i64 %2, 2
  %.not1.i = icmp eq i64 %16, 0
  %spec.select.i = select i1 %.not1.i, i64 0, i64 27
  %spec.select2.i = select i1 %.not1.i, ptr null, ptr @_ZN4absl12lts_202407226Status16kMovedFromStringE
  br label %_ZNK4absl12lts_202407226Status7messageEv.exit

_ZNK4absl12lts_202407226Status7messageEv.exit:    ; preds = %9, %15
  %.sroa.0.0.i = phi i64 [ %14, %9 ], [ %spec.select.i, %15 ]
  %.sroa.4.0.i = phi ptr [ %12, %9 ], [ %spec.select2.i, %15 ]
  tail call void @_ZN9grpc_core16ValidationErrors8AddErrorESt17basic_string_viewIcSt11char_traitsIcEE(ptr noundef nonnull align 8 dereferenceable(80) %7, i64 %.sroa.0.0.i, ptr %.sroa.4.0.i)
  br label %17

17:                                               ; preds = %_ZNK4absl12lts_202407226Status7messageEv.exit, %_ZNR4absl12lts_202407228StatusOrIN9grpc_core13HeaderMatcherEEdeEv.exit
  ret void
}